; ModuleID = '4/93.c'
source_filename = "4/93.c"
target datalayout = "e-m:e-p270:32:32-p271:32:32-p272:64:64-i64:64-f80:128-n8:16:32:64-S128"
target triple = "x86_64-pc-linux-gnu"

@.str = private unnamed_addr constant [5 x i8] c"%d%d\00", align 1
@.str.1 = private unnamed_addr constant [3 x i8] c"%d\00", align 1
@.str.2 = private unnamed_addr constant [4 x i8] c"%d\0A\00", align 1

; Function Attrs: noinline nounwind uwtable
define dso_local void @main() #0 {
  %1 = alloca i32, align 4
  %2 = alloca i32, align 4
  %3 = alloca i32, align 4
  %4 = alloca i32, align 4
  %5 = alloca i32, align 4
  %6 = alloca [101 x i32*], align 16
  %7 = alloca [101 x i32*], align 16
  store i32 0, i32* %3, align 4
  %8 = call i32 (i8*, ...) @__isoc99_scanf(i8* getelementptr inbounds ([5 x i8], [5 x i8]* @.str, i64 0, i64 0), i32* %1, i32* %2)
  store i32 0, i32* %4, align 4
  br label %9

9:                                                ; preds = %44, %0
  %10 = load i32, i32* %4, align 4
  %11 = load i32, i32* %1, align 4
  %12 = icmp slt i32 %10, %11
  br i1 %12, label %13, label %47

13:                                               ; preds = %9
  %14 = load i32, i32* %2, align 4
  %15 = sext i32 %14 to i64
  %16 = mul i64 4, %15
  %17 = call noalias i8* @malloc(i64 %16) #3
  %18 = bitcast i8* %17 to i32*
  %19 = load i32, i32* %4, align 4
  %20 = sext i32 %19 to i64
  %21 = getelementptr inbounds [101 x i32*], [101 x i32*]* %6, i64 0, i64 %20
  store i32* %18, i32** %21, align 8
  %22 = load i32, i32* %4, align 4
  %23 = sext i32 %22 to i64
  %24 = getelementptr inbounds [101 x i32*], [101 x i32*]* %7, i64 0, i64 %23
  store i32* %18, i32** %24, align 8
  store i32 0, i32* %5, align 4
  br label %25

25:                                               ; preds = %35, %13
  %26 = load i32, i32* %5, align 4
  %27 = load i32, i32* %2, align 4
  %28 = icmp slt i32 %26, %27
  br i1 %28, label %29, label %43

29:                                               ; preds = %25
  %30 = load i32, i32* %4, align 4
  %31 = sext i32 %30 to i64
  %32 = getelementptr inbounds [101 x i32*], [101 x i32*]* %6, i64 0, i64 %31
  %33 = load i32*, i32** %32, align 8
  %34 = call i32 (i8*, ...) @__isoc99_scanf(i8* getelementptr inbounds ([3 x i8], [3 x i8]* @.str.1, i64 0, i64 0), i32* %33)
  br label %35

35:                                               ; preds = %29
  %36 = load i32, i32* %5, align 4
  %37 = add nsw i32 %36, 1
  store i32 %37, i32* %5, align 4
  %38 = load i32, i32* %4, align 4
  %39 = sext i32 %38 to i64
  %40 = getelementptr inbounds [101 x i32*], [101 x i32*]* %6, i64 0, i64 %39
  %41 = load i32*, i32** %40, align 8
  %42 = getelementptr inbounds i32, i32* %41, i32 1
  store i32* %42, i32** %40, align 8
  br label %25

43:                                               ; preds = %25
  br label %44

44:                                               ; preds = %43
  %45 = load i32, i32* %4, align 4
  %46 = add nsw i32 %45, 1
  store i32 %46, i32* %4, align 4
  br label %9

47:                                               ; preds = %9
  %48 = load i32, i32* %2, align 4
  %49 = icmp eq i32 %48, 1
  br i1 %49, label %50, label %66

50:                                               ; preds = %47
  store i32 0, i32* %4, align 4
  br label %51

51:                                               ; preds = %62, %50
  %52 = load i32, i32* %4, align 4
  %53 = load i32, i32* %1, align 4
  %54 = icmp slt i32 %52, %53
  br i1 %54, label %55, label %65

55:                                               ; preds = %51
  %56 = load i32, i32* %4, align 4
  %57 = sext i32 %56 to i64
  %58 = getelementptr inbounds [101 x i32*], [101 x i32*]* %7, i64 0, i64 %57
  %59 = load i32*, i32** %58, align 8
  %60 = load i32, i32* %59, align 4
  %61 = call i32 (i8*, ...) @printf(i8* getelementptr inbounds ([4 x i8], [4 x i8]* @.str.2, i64 0, i64 0), i32 %60)
  br label %62

62:                                               ; preds = %55
  %63 = load i32, i32* %4, align 4
  %64 = add nsw i32 %63, 1
  store i32 %64, i32* %4, align 4
  br label %51

65:                                               ; preds = %51
  br label %152

66:                                               ; preds = %47
  store i32 0, i32* %4, align 4
  br label %67

67:                                               ; preds = %79, %66
  %68 = load i32, i32* %4, align 4
  %69 = load i32, i32* %1, align 4
  %70 = icmp slt i32 %68, %69
  br i1 %70, label %71, label %82

71:                                               ; preds = %67
  %72 = load i32, i32* %4, align 4
  %73 = sext i32 %72 to i64
  %74 = getelementptr inbounds [101 x i32*], [101 x i32*]* %7, i64 0, i64 %73
  %75 = load i32*, i32** %74, align 8
  %76 = load i32, i32* %4, align 4
  %77 = sext i32 %76 to i64
  %78 = getelementptr inbounds [101 x i32*], [101 x i32*]* %6, i64 0, i64 %77
  store i32* %75, i32** %78, align 8
  br label %79

79:                                               ; preds = %71
  %80 = load i32, i32* %4, align 4
  %81 = add nsw i32 %80, 1
  store i32 %81, i32* %4, align 4
  br label %67

82:                                               ; preds = %67
  store i32 0, i32* %4, align 4
  br label %83

83:                                               ; preds = %148, %82
  %84 = load i32, i32* %4, align 4
  %85 = load i32, i32* %1, align 4
  %86 = load i32, i32* %2, align 4
  %87 = add nsw i32 %85, %86
  %88 = add nsw i32 %87, 1
  %89 = icmp slt i32 %84, %88
  br i1 %89, label %90, label %151

90:                                               ; preds = %83
  store i32 0, i32* %5, align 4
  br label %91

91:                                               ; preds = %128, %90
  %92 = load i32, i32* %5, align 4
  %93 = load i32, i32* %4, align 4
  %94 = icmp sle i32 %92, %93
  br i1 %94, label %95, label %99

95:                                               ; preds = %91
  %96 = load i32, i32* %5, align 4
  %97 = load i32, i32* %1, align 4
  %98 = icmp slt i32 %96, %97
  br label %99

99:                                               ; preds = %95, %91
  %100 = phi i1 [ false, %91 ], [ %98, %95 ]
  br i1 %100, label %101, label %131

101:                                              ; preds = %99
  %102 = load i32, i32* %5, align 4
  %103 = sext i32 %102 to i64
  %104 = getelementptr inbounds [101 x i32*], [101 x i32*]* %6, i64 0, i64 %103
  %105 = load i32*, i32** %104, align 8
  %106 = load i32, i32* %5, align 4
  %107 = sext i32 %106 to i64
  %108 = getelementptr inbounds [101 x i32*], [101 x i32*]* %7, i64 0, i64 %107
  %109 = load i32*, i32** %108, align 8
  %110 = load i32, i32* %2, align 4
  %111 = sext i32 %110 to i64
  %112 = getelementptr inbounds i32, i32* %109, i64 %111
  %113 = icmp ne i32* %105, %112
  br i1 %113, label %114, label %126

114:                                              ; preds = %101
  %115 = load i32, i32* %5, align 4
  %116 = sext i32 %115 to i64
  %117 = getelementptr inbounds [101 x i32*], [101 x i32*]* %6, i64 0, i64 %116
  %118 = load i32*, i32** %117, align 8
  %119 = load i32, i32* %118, align 4
  %120 = call i32 (i8*, ...) @printf(i8* getelementptr inbounds ([4 x i8], [4 x i8]* @.str.2, i64 0, i64 0), i32 %119)
  %121 = load i32, i32* %5, align 4
  %122 = sext i32 %121 to i64
  %123 = getelementptr inbounds [101 x i32*], [101 x i32*]* %6, i64 0, i64 %122
  %124 = load i32*, i32** %123, align 8
  %125 = getelementptr inbounds i32, i32* %124, i32 1
  store i32* %125, i32** %123, align 8
  br label %127

126:                                              ; preds = %101
  br label %128

127:                                              ; preds = %114
  br label %128

128:                                              ; preds = %127, %126
  %129 = load i32, i32* %5, align 4
  %130 = add nsw i32 %129, 1
  store i32 %130, i32* %5, align 4
  br label %91

131:                                              ; preds = %99
  %132 = load i32, i32* %5, align 4
  %133 = sext i32 %132 to i64
  %134 = getelementptr inbounds [101 x i32*], [101 x i32*]* %6, i64 0, i64 %133
  %135 = load i32*, i32** %134, align 8
  %136 = load i32, i32* %1, align 4
  %137 = sub nsw i32 %136, 1
  %138 = sext i32 %137 to i64
  %139 = getelementptr inbounds [101 x i32*], [101 x i32*]* %7, i64 0, i64 %138
  %140 = load i32*, i32** %139, align 8
  %141 = load i32, i32* %2, align 4
  %142 = sext i32 %141 to i64
  %143 = getelementptr inbounds i32, i32* %140, i64 %142
  %144 = getelementptr inbounds i32, i32* %143, i64 -1
  %145 = icmp eq i32* %135, %144
  br i1 %145, label %146, label %147

146:                                              ; preds = %131
  br label %151

147:                                              ; preds = %131
  br label %148

148:                                              ; preds = %147
  %149 = load i32, i32* %4, align 4
  %150 = add nsw i32 %149, 1
  store i32 %150, i32* %4, align 4
  br label %83

151:                                              ; preds = %146, %83
  br label %152

152:                                              ; preds = %151, %65
  ret void
}

declare dso_local i32 @__isoc99_scanf(i8*, ...) #1

; Function Attrs: nounwind
declare dso_local noalias i8* @malloc(i64) #2

declare dso_local i32 @printf(i8*, ...) #1


!llvm.module.flags = !{!0}
!llvm.ident = !{!1}

!0 = !{i32 1, !"wchar_size", i32 4}
!1 = !{!"clang version 10.0.0-4ubuntu1 "}
